target datalayout = "e-m:e-p270:32:32-p271:32:32-p272:64:64-i64:64-i128:128-f80:128-n8:16:32:64-S128"
target triple = "x86_64-pc-linux-gnu"

@find_session_cb_cnt = internal global i32 0, align 4
@serverpsk = internal global ptr null, align 8
@pskid = internal global ptr @.str.233, align 8

; Function Attrs: nounwind uwtable
define internal i32 @find_session_cb(ptr noundef %0, ptr noundef %1, i64 noundef %2, ptr noundef %3) #0 {
  %5 = alloca i32, align 4
  %6 = alloca ptr, align 8
  %7 = alloca ptr, align 8
  %8 = alloca i64, align 8
  %9 = alloca ptr, align 8
  store ptr %0, ptr %6, align 8, !tbaa !17
  store ptr %1, ptr %7, align 8, !tbaa !11
  store i64 %2, ptr %8, align 8, !tbaa !21
  store ptr %3, ptr %9, align 8, !tbaa !88
  %10 = load i32, ptr @find_session_cb_cnt, align 4, !tbaa !13
  %11 = add nsw i32 %10, 1
  store i32 %11, ptr @find_session_cb_cnt, align 4, !tbaa !13
  %12 = load ptr, ptr @serverpsk, align 8, !tbaa !23
  %13 = icmp eq ptr %12, null
  br i1 %13, label %14, label %15

14:                                               ; preds = %4
  store i32 0, ptr %5, align 4
  br label %32

15:                                               ; preds = %4
  %16 = load ptr, ptr @pskid, align 8, !tbaa !11
  %17 = call i64 @strlen(ptr noundef %16) #9
  %18 = load i64, ptr %8, align 8, !tbaa !21
  %19 = icmp ne i64 %17, %18
  br i1 %19, label %26, label %20

20:                                               ; preds = %15
  %21 = load ptr, ptr @pskid, align 8, !tbaa !11
  %22 = load ptr, ptr %7, align 8, !tbaa !11
  %23 = load i64, ptr %8, align 8, !tbaa !21
  %24 = call i32 @strncmp(ptr noundef %21, ptr noundef %22, i64 noundef %23) #9
  %25 = icmp ne i32 %24, 0
  br i1 %25, label %26, label %27

26:                                               ; preds = %20, %15
  store i32 0, ptr %5, align 4
  br label %32

27:                                               ; preds = %20
  %28 = load ptr, ptr @serverpsk, align 8, !tbaa !23
  %29 = call i32 @SSL_SESSION_up_ref(ptr noundef %28)
  %30 = load ptr, ptr @serverpsk, align 8, !tbaa !23
  %31 = load ptr, ptr %9, align 8, !tbaa !88
  store ptr %30, ptr %31, align 8, !tbaa !23
  store i32 1, ptr %5, align 4
  br label %32

32:                                               ; preds = %27, %26, %14
  %33 = load i32, ptr %5, align 4
  ret i32 %33
}