; Function Attrs: nounwind uwtable
define internal range(i32 0, 2) i32 @find_session_cb(ptr readnone captures(none) %0, ptr noundef readonly captures(none) %1, i64 noundef %2, ptr noundef writeonly captures(none) %3) #1 {
  %5 = load i32, ptr @find_session_cb_cnt, align 4, !tbaa !19
  %6 = add nsw i32 %5, 1
  store i32 %6, ptr @find_session_cb_cnt, align 4, !tbaa !19
  %7 = load ptr, ptr @serverpsk, align 8, !tbaa !40
  %8 = icmp ne ptr %7, null
  %.not = icmp eq i64 %2, 8
  %or.cond = and i1 %.not, %8
  br i1 %or.cond, label %9, label %14

9:                                                ; preds = %4
  %10 = tail call i32 @strncmp(ptr noundef nonnull dereferenceable(9) @.str.233, ptr noundef nonnull dereferenceable(1) %1, i64 noundef 8) #11
  %.not6 = icmp eq i32 %10, 0
  br i1 %.not6, label %11, label %14

11:                                               ; preds = %9
  %12 = tail call i32 @SSL_SESSION_up_ref(ptr noundef nonnull %7) #10
  %13 = load ptr, ptr @serverpsk, align 8, !tbaa !40
  store ptr %13, ptr %3, align 8, !tbaa !40
  br label %14

14:                                               ; preds = %9, %4, %11
  %.0 = phi i32 [ 1, %11 ], [ 0, %4 ], [ 0, %9 ]
  ret i32 %.0
}